target datalayout = "e-m:e-p270:32:32-p271:32:32-p272:64:64-i64:64-i128:128-f80:128-n8:16:32:64-S128"
target triple = "x86_64-pc-linux-gnu"

%class.GraphAlg = type { ptr, ptr }
%class.V3GraphVertex = type { ptr, %class.V3ListLinks, %class.V3List, %class.V3List.0, double, i32, i32, %union.anon }
%class.V3ListLinks = type { ptr, ptr }
%class.V3List = type { ptr, ptr }
%class.V3List.0 = type { ptr, ptr }
%union.anon = type { ptr }
%"class.V3List<V3GraphEdge, &V3GraphEdge::oLinks>::SimpleItertatorImpl" = type { ptr }
%class.GraphPathChecker = type { %class.GraphAlg, i64 }
%class.V3GraphEdge = type { ptr, %class.V3ListLinks.1, %class.V3ListLinks.1, ptr, ptr, i32, i8, %union.anon.2 }
%class.V3ListLinks.1 = type { ptr, ptr }
%union.anon.2 = type { ptr }

; Function Attrs: mustprogress nounwind uwtable
define linkonce_odr dso_local noundef nonnull align 8 dereferenceable(16) ptr @_ZN11V3GraphEdge6oLinksEv(ptr noundef nonnull align 8 dereferenceable(72) %0) #7 comdat align 2 {
  %2 = alloca ptr, align 8
  store ptr %0, ptr %2, align 8
  %3 = load ptr, ptr %2, align 8
  %4 = getelementptr inbounds %class.V3GraphEdge, ptr %3, i32 0, i32 1
  ret ptr %4
}

; Function Attrs: mustprogress uwtable
define linkonce_odr dso_local ptr @_ZNK6V3ListI11V3GraphEdgeXadL_ZNS0_6oLinksEvEES0_E3endEv(ptr noundef nonnull align 8 dereferenceable(16) %0) #4 comdat align 2 {
  %2 = alloca ptr, align 8
  %3 = alloca ptr, align 8
  %4 = alloca %"class.V3List<V3GraphEdge, &V3GraphEdge::oLinks>::SimpleItertatorImpl", align 8
  %5 = alloca ptr, align 8
  store ptr %0, ptr %5, align 8
  store ptr %4, ptr %2, align 8
  store ptr null, ptr %3, align 8
  %6 = load ptr, ptr %2, align 8
  %7 = load ptr, ptr %3, align 8
  store ptr %7, ptr %6, align 8
  %8 = getelementptr inbounds %"class.V3List<V3GraphEdge, &V3GraphEdge::oLinks>::SimpleItertatorImpl", ptr %4, i32 0, i32 0
  %9 = load ptr, ptr %8, align 8
  ret ptr %9
}

; Function Attrs: mustprogress uwtable
define linkonce_odr dso_local ptr @_ZNK6V3ListI11V3GraphEdgeXadL_ZNS0_6oLinksEvEES0_E5beginEv(ptr noundef nonnull align 8 dereferenceable(16) %0) #4 comdat align 2 {
  %2 = alloca ptr, align 8
  %3 = alloca ptr, align 8
  %4 = alloca %"class.V3List<V3GraphEdge, &V3GraphEdge::oLinks>::SimpleItertatorImpl", align 8
  %5 = alloca ptr, align 8
  store ptr %0, ptr %5, align 8
  %6 = load ptr, ptr %5, align 8
  %7 = getelementptr inbounds %class.V3List, ptr %6, i32 0, i32 0
  %8 = load ptr, ptr %7, align 8
  store ptr %4, ptr %2, align 8
  store ptr %8, ptr %3, align 8
  %9 = load ptr, ptr %2, align 8
  %10 = load ptr, ptr %3, align 8
  store ptr %10, ptr %9, align 8
  %11 = getelementptr inbounds %"class.V3List<V3GraphEdge, &V3GraphEdge::oLinks>::SimpleItertatorImpl", ptr %4, i32 0, i32 0
  %12 = load ptr, ptr %11, align 8
  ret ptr %12
}

; Function Attrs: mustprogress nounwind uwtable
define linkonce_odr dso_local noundef nonnull align 8 dereferenceable(16) ptr @_ZNK13V3GraphVertex8outEdgesEv(ptr noundef nonnull align 8 dereferenceable(80) %0) #7 comdat align 2 {
  %2 = alloca ptr, align 8
  store ptr %0, ptr %2, align 8
  %3 = load ptr, ptr %2, align 8
  %4 = getelementptr inbounds %class.V3GraphVertex, ptr %3, i32 0, i32 2
  ret ptr %4
}

; Function Attrs: mustprogress nounwind uwtable
define linkonce_odr dso_local void @_ZN16GraphPathChecker13incGenerationEv(ptr noundef nonnull align 8 dereferenceable(24) %0) #7 comdat align 2 {
  %2 = alloca ptr, align 8
  store ptr %0, ptr %2, align 8
  %3 = load ptr, ptr %2, align 8
  %4 = getelementptr inbounds %class.GraphPathChecker, ptr %3, i32 0, i32 1
  %5 = load i64, ptr %4, align 8
  %6 = add i64 %5, 1
  store i64 %6, ptr %4, align 8
  ret void
}

; Function Attrs: mustprogress nounwind uwtable
define linkonce_odr dso_local noundef ptr @_ZNK11V3GraphEdge3topEv(ptr noundef nonnull align 8 dereferenceable(72) %0) #7 comdat align 2 {
  %2 = alloca ptr, align 8
  store ptr %0, ptr %2, align 8
  %3 = load ptr, ptr %2, align 8
  %4 = getelementptr inbounds %class.V3GraphEdge, ptr %3, i32 0, i32 4
  %5 = load ptr, ptr %4, align 8
  ret ptr %5
}

; Function Attrs: mustprogress nounwind uwtable
define linkonce_odr dso_local noundef ptr @_ZNK11V3GraphEdge5frompEv(ptr noundef nonnull align 8 dereferenceable(72) %0) #7 comdat align 2 {
  %2 = alloca ptr, align 8
  store ptr %0, ptr %2, align 8
  %3 = load ptr, ptr %2, align 8
  %4 = getelementptr inbounds %class.V3GraphEdge, ptr %3, i32 0, i32 3
  %5 = load ptr, ptr %4, align 8
  ret ptr %5
}

; Function Attrs: mustprogress uwtable
define dso_local noundef zeroext i1 @_ZN16GraphPathChecker16isTransitiveEdgeEPK11V3GraphEdge(ptr noundef nonnull align 8 dereferenceable(24) %0, ptr noundef %1) #4 align 2 {
  %3 = alloca ptr, align 8
  %4 = alloca ptr, align 8
  %5 = alloca ptr, align 8
  %6 = alloca ptr, align 8
  %7 = alloca ptr, align 8
  %8 = alloca ptr, align 8
  %9 = alloca ptr, align 8
  %10 = alloca ptr, align 8
  %11 = alloca ptr, align 8
  %12 = alloca ptr, align 8
  %13 = alloca i1, align 1
  %14 = alloca ptr, align 8
  %15 = alloca ptr, align 8
  %16 = alloca ptr, align 8
  %17 = alloca ptr, align 8
  %18 = alloca ptr, align 8
  %19 = alloca %"class.V3List<V3GraphEdge, &V3GraphEdge::oLinks>::SimpleItertatorImpl", align 8
  %20 = alloca %"class.V3List<V3GraphEdge, &V3GraphEdge::oLinks>::SimpleItertatorImpl", align 8
  %21 = alloca ptr, align 8
  store ptr %0, ptr %14, align 8
  store ptr %1, ptr %15, align 8
  %22 = load ptr, ptr %14, align 8
  %23 = load ptr, ptr %15, align 8
  %24 = call noundef ptr @_ZNK11V3GraphEdge5frompEv(ptr noundef nonnull align 8 dereferenceable(72) %23)
  store ptr %24, ptr %16, align 8
  %25 = load ptr, ptr %15, align 8
  %26 = call noundef ptr @_ZNK11V3GraphEdge3topEv(ptr noundef nonnull align 8 dereferenceable(72) %25)
  store ptr %26, ptr %17, align 8
  call void @_ZN16GraphPathChecker13incGenerationEv(ptr noundef nonnull align 8 dereferenceable(24) %22)
  %27 = load ptr, ptr %16, align 8
  %28 = call noundef nonnull align 8 dereferenceable(16) ptr @_ZNK13V3GraphVertex8outEdgesEv(ptr noundef nonnull align 8 dereferenceable(80) %27)
  store ptr %28, ptr %18, align 8
  %29 = load ptr, ptr %18, align 8
  %30 = call ptr @_ZNK6V3ListI11V3GraphEdgeXadL_ZNS0_6oLinksEvEES0_E5beginEv(ptr noundef nonnull align 8 dereferenceable(16) %29)
  %31 = getelementptr inbounds %"class.V3List<V3GraphEdge, &V3GraphEdge::oLinks>::SimpleItertatorImpl", ptr %19, i32 0, i32 0
  store ptr %30, ptr %31, align 8
  %32 = load ptr, ptr %18, align 8
  %33 = call ptr @_ZNK6V3ListI11V3GraphEdgeXadL_ZNS0_6oLinksEvEES0_E3endEv(ptr noundef nonnull align 8 dereferenceable(16) %32)
  %34 = getelementptr inbounds %"class.V3List<V3GraphEdge, &V3GraphEdge::oLinks>::SimpleItertatorImpl", ptr %20, i32 0, i32 0
  store ptr %33, ptr %34, align 8
  br label %35

35:                                               ; preds = %69, %2
  store ptr %19, ptr %11, align 8
  store ptr %20, ptr %12, align 8
  %36 = load ptr, ptr %11, align 8
  %37 = load ptr, ptr %36, align 8
  %38 = load ptr, ptr %12, align 8
  %39 = load ptr, ptr %38, align 8
  %40 = icmp ne ptr %37, %39
  br i1 %40, label %41, label %76

41:                                               ; preds = %35
  store ptr %19, ptr %10, align 8
  %42 = load ptr, ptr %10, align 8
  %43 = load ptr, ptr %42, align 8
  store ptr %43, ptr %7, align 8
  %44 = load ptr, ptr %7, align 8
  store ptr %44, ptr %6, align 8
  %45 = load ptr, ptr %6, align 8
  %46 = call noundef nonnull align 8 dereferenceable(16) ptr @_ZN11V3GraphEdge6oLinksEv(ptr noundef nonnull align 8 dereferenceable(72) %45)
  %47 = load ptr, ptr %46, align 8
  %48 = load ptr, ptr %42, align 8
  store ptr %47, ptr %3, align 8
  store ptr %48, ptr %4, align 8
  %49 = load ptr, ptr %3, align 8
  %50 = icmp ne ptr %49, null
  br i1 %50, label %51, label %53

51:                                               ; preds = %41
  %52 = load ptr, ptr %3, align 8
  br label %55

53:                                               ; preds = %41
  %54 = load ptr, ptr %4, align 8
  br label %55

55:                                               ; preds = %53, %51
  %56 = phi ptr [ %52, %51 ], [ %54, %53 ]
  call void @llvm.prefetch.p0(ptr %56, i32 1, i32 3, i32 1)
  %57 = load ptr, ptr %42, align 8
  store ptr %57, ptr %21, align 8
  %58 = load ptr, ptr %21, align 8
  %59 = load ptr, ptr %15, align 8
  %60 = icmp eq ptr %58, %59
  br i1 %60, label %61, label %62

61:                                               ; preds = %55
  br label %69

62:                                               ; preds = %55
  %63 = load ptr, ptr %21, align 8
  %64 = call noundef ptr @_ZNK11V3GraphEdge3topEv(ptr noundef nonnull align 8 dereferenceable(72) %63)
  %65 = load ptr, ptr %17, align 8
  %66 = call noundef zeroext i1 @_ZN16GraphPathChecker18pathExistsInternalEPK13V3GraphVertexS2_Pj(ptr noundef nonnull align 8 dereferenceable(24) %22, ptr noundef %64, ptr noundef %65, ptr noundef null)
  br i1 %66, label %67, label %68

67:                                               ; preds = %62
  store i1 true, ptr %13, align 1
  br label %77

68:                                               ; preds = %62
  br label %69

69:                                               ; preds = %68, %61
  store ptr %19, ptr %9, align 8
  %70 = load ptr, ptr %9, align 8
  %71 = load ptr, ptr %70, align 8
  store ptr %71, ptr %8, align 8
  %72 = load ptr, ptr %8, align 8
  store ptr %72, ptr %5, align 8
  %73 = load ptr, ptr %5, align 8
  %74 = call noundef nonnull align 8 dereferenceable(16) ptr @_ZN11V3GraphEdge6oLinksEv(ptr noundef nonnull align 8 dereferenceable(72) %73)
  %75 = load ptr, ptr %74, align 8
  store ptr %75, ptr %70, align 8
  br label %35

76:                                               ; preds = %35
  store i1 false, ptr %13, align 1
  br label %77

77:                                               ; preds = %76, %67
  %78 = load i1, ptr %13, align 1
  ret i1 %78
}