; Function Attrs: mustprogress uwtable
define dso_local noundef zeroext i1 @_ZN16GraphPathChecker16isTransitiveEdgeEPK11V3GraphEdge(ptr nocapture noundef nonnull align 8 dereferenceable(24) %0, ptr noundef readonly %1) #3 align 2 {
  %3 = getelementptr inbounds i8, ptr %1, i64 40
  %4 = load ptr, ptr %3, align 8
  %5 = getelementptr inbounds i8, ptr %1, i64 48
  %6 = load ptr, ptr %5, align 8
  %7 = getelementptr inbounds i8, ptr %0, i64 16
  %8 = load i64, ptr %7, align 8
  %9 = add i64 %8, 1
  store i64 %9, ptr %7, align 8
  %10 = getelementptr inbounds i8, ptr %4, i64 24
  %.sroa.0.028 = load ptr, ptr %10, align 8
  %.not29.not = icmp eq ptr %.sroa.0.028, null
  br i1 %.not29.not, label %._crit_edge, label %.lr.ph

.lr.ph:                                           ; preds = %2, %19
  %.sroa.0.030 = phi ptr [ %.sroa.0.0, %19 ], [ %.sroa.0.028, %2 ]
  %11 = getelementptr inbounds i8, ptr %.sroa.0.030, i64 8
  %12 = load ptr, ptr %11, align 8
  %.not27 = icmp eq ptr %12, null
  %13 = select i1 %.not27, ptr %.sroa.0.030, ptr %12
  tail call void @llvm.prefetch.p0(ptr nonnull %13, i32 1, i32 3, i32 1)
  %14 = icmp eq ptr %.sroa.0.030, %1
  br i1 %14, label %19, label %15

15:                                               ; preds = %.lr.ph
  %16 = getelementptr inbounds i8, ptr %.sroa.0.030, i64 48
  %17 = load ptr, ptr %16, align 8
  %18 = tail call noundef zeroext i1 @_ZN16GraphPathChecker18pathExistsInternalEPK13V3GraphVertexS2_Pj(ptr noundef nonnull align 8 dereferenceable(24) %0, ptr noundef %17, ptr noundef %6, ptr noundef null)
  br i1 %18, label %._crit_edge, label %._crit_edge34

._crit_edge34:                                    ; preds = %15
  %.sroa.0.0.pre = load ptr, ptr %11, align 8
  br label %19

19:                                               ; preds = %._crit_edge34, %.lr.ph
  %.sroa.0.0 = phi ptr [ %.sroa.0.0.pre, %._crit_edge34 ], [ %12, %.lr.ph ]
  %.not.not = icmp eq ptr %.sroa.0.0, null
  br i1 %.not.not, label %._crit_edge, label %.lr.ph

._crit_edge:                                      ; preds = %15, %19, %2
  %.not.lcssa = phi i1 [ false, %2 ], [ false, %19 ], [ true, %15 ]
  ret i1 %.not.lcssa
}